target datalayout = "e-m:e-p270:32:32-p271:32:32-p272:64:64-i64:64-i128:128-f80:128-n8:16:32:64-S128"
target triple = "x86_64-pc-linux-gnu"

; Function Attrs: nounwind uwtable
define internal i32 @zueci_u_lookup_uro(i32 noundef %0, ptr noundef %1, ptr noundef %2, ptr noundef %3, ptr noundef %4) #0 {
  %6 = alloca i32, align 4
  %7 = alloca i32, align 4
  %8 = alloca ptr, align 8
  %9 = alloca ptr, align 8
  %10 = alloca ptr, align 8
  %11 = alloca ptr, align 8
  %12 = alloca i32, align 4
  %13 = alloca i32, align 4
  %14 = alloca i16, align 2
  store i32 %0, ptr %7, align 4
  store ptr %1, ptr %8, align 8
  store ptr %2, ptr %9, align 8
  store ptr %3, ptr %10, align 8
  store ptr %4, ptr %11, align 8
  %15 = load i32, ptr %7, align 4
  %16 = sub i32 %15, 19968
  %17 = lshr i32 %16, 4
  store i32 %17, ptr %12, align 4
  %18 = load i32, ptr %7, align 4
  %19 = and i32 %18, 15
  %20 = shl i32 1, %19
  store i32 %20, ptr %13, align 4
  %21 = load ptr, ptr %8, align 8
  %22 = load i32, ptr %12, align 4
  %23 = zext i32 %22 to i64
  %24 = getelementptr inbounds i16, ptr %21, i64 %23
  %25 = load i16, ptr %24, align 2
  %26 = zext i16 %25 to i32
  %27 = load i32, ptr %13, align 4
  %28 = and i32 %26, %27
  %29 = icmp eq i32 %28, 0
  br i1 %29, label %30, label %31

30:                                               ; preds = %5
  store i32 0, ptr %6, align 4
  br label %81

31:                                               ; preds = %5
  %32 = load ptr, ptr %8, align 8
  %33 = load i32, ptr %12, align 4
  %34 = zext i32 %33 to i64
  %35 = getelementptr inbounds i16, ptr %32, i64 %34
  %36 = load i16, ptr %35, align 2
  %37 = zext i16 %36 to i32
  %38 = load i32, ptr %13, align 4
  %39 = sub i32 %38, 1
  %40 = and i32 %37, %39
  store i32 %40, ptr %13, align 4
  %41 = load i32, ptr %13, align 4
  %42 = load i32, ptr %13, align 4
  %43 = lshr i32 %42, 1
  %44 = and i32 %43, 1431655765
  %45 = sub i32 %41, %44
  store i32 %45, ptr %13, align 4
  %46 = load i32, ptr %13, align 4
  %47 = and i32 %46, 858993459
  %48 = load i32, ptr %13, align 4
  %49 = lshr i32 %48, 2
  %50 = and i32 %49, 858993459
  %51 = add i32 %47, %50
  store i32 %51, ptr %13, align 4
  %52 = load i32, ptr %13, align 4
  %53 = load i32, ptr %13, align 4
  %54 = lshr i32 %53, 4
  %55 = add i32 %52, %54
  %56 = and i32 %55, 252645135
  %57 = mul i32 %56, 16843009
  %58 = lshr i32 %57, 24
  store i32 %58, ptr %13, align 4
  %59 = load ptr, ptr %10, align 8
  %60 = load ptr, ptr %9, align 8
  %61 = load i32, ptr %12, align 4
  %62 = zext i32 %61 to i64
  %63 = getelementptr inbounds i16, ptr %60, i64 %62
  %64 = load i16, ptr %63, align 2
  %65 = zext i16 %64 to i32
  %66 = load i32, ptr %13, align 4
  %67 = add i32 %65, %66
  %68 = zext i32 %67 to i64
  %69 = getelementptr inbounds i16, ptr %59, i64 %68
  %70 = load i16, ptr %69, align 2
  store i16 %70, ptr %14, align 2
  %71 = load i16, ptr %14, align 2
  %72 = zext i16 %71 to i32
  %73 = ashr i32 %72, 8
  %74 = trunc i32 %73 to i8
  %75 = load ptr, ptr %11, align 8
  %76 = getelementptr inbounds i8, ptr %75, i64 0
  store i8 %74, ptr %76, align 1
  %77 = load i16, ptr %14, align 2
  %78 = trunc i16 %77 to i8
  %79 = load ptr, ptr %11, align 8
  %80 = getelementptr inbounds i8, ptr %79, i64 1
  store i8 %78, ptr %80, align 1
  store i32 2, ptr %6, align 4
  br label %81

81:                                               ; preds = %31, %30
  %82 = load i32, ptr %6, align 4
  ret i32 %82
}