; Function Attrs: mustprogress nofree norecurse nosync nounwind willreturn memory(argmem: readwrite) uwtable
define internal fastcc noundef i32 @zueci_u_lookup_uro(i32 noundef %0, ptr nocapture noundef readonly %1, ptr nocapture noundef readonly %2, ptr nocapture noundef readonly %3, ptr nocapture noundef writeonly %4) unnamed_addr #6 {
  %6 = add nsw i32 %0, -19968
  %7 = lshr i32 %6, 4
  %8 = and i32 %0, 15
  %9 = shl nuw nsw i32 1, %8
  %10 = zext nneg i32 %7 to i64
  %11 = getelementptr inbounds i16, ptr %1, i64 %10
  %12 = load i16, ptr %11, align 2
  %13 = zext i16 %12 to i32
  %14 = and i32 %9, %13
  %15 = icmp eq i32 %14, 0
  br i1 %15, label %42, label %16

16:                                               ; preds = %5
  %17 = add nuw nsw i32 %9, 65535
  %18 = and i32 %17, %13
  %19 = lshr i32 %18, 1
  %20 = and i32 %19, 21845
  %21 = sub nsw i32 %18, %20
  %22 = and i32 %21, 858993459
  %23 = lshr i32 %21, 2
  %24 = and i32 %23, 858993459
  %25 = add nuw nsw i32 %24, %22
  %26 = lshr i32 %25, 4
  %27 = add nuw nsw i32 %26, %25
  %28 = and i32 %27, 252645135
  %29 = mul i32 %28, 16843009
  %30 = lshr i32 %29, 24
  %31 = getelementptr inbounds i16, ptr %2, i64 %10
  %32 = load i16, ptr %31, align 2
  %33 = zext i16 %32 to i32
  %34 = add nuw nsw i32 %30, %33
  %35 = zext nneg i32 %34 to i64
  %36 = getelementptr inbounds i16, ptr %3, i64 %35
  %37 = load i16, ptr %36, align 2
  %38 = lshr i16 %37, 8
  %39 = trunc nuw i16 %38 to i8
  store i8 %39, ptr %4, align 1
  %40 = trunc i16 %37 to i8
  %41 = getelementptr inbounds i8, ptr %4, i64 1
  store i8 %40, ptr %41, align 1
  br label %42

42:                                               ; preds = %5, %16
  %.0 = phi i32 [ 2, %16 ], [ 0, %5 ]
  ret i32 %.0
}